; Function Attrs: nounwind uwtable
define range(i32 -29, 1) i32 @CVodeSetMaxNumProjFails(ptr noundef %0, i32 noundef %1) local_unnamed_addr #0 {
  %3 = icmp eq ptr %0, null
  br i1 %3, label %4, label %5

4:                                                ; preds = %2
  tail call void (ptr, i32, i32, ptr, ptr, ptr, ...) @cvProcessError(ptr noundef null, i32 noundef -21, i32 noundef 438, ptr noundef nonnull @__func__.CVodeSetMaxNumProjFails, ptr noundef nonnull @.str, ptr noundef nonnull @.str.1) #8
  br label %cvAccessProjMem.exit.thread

5:                                                ; preds = %2
  %6 = getelementptr inbounds nuw i8, ptr %0, i64 1504
  %7 = load ptr, ptr %6, align 8
  %8 = icmp eq ptr %7, null
  br i1 %8, label %9, label %cvAccessProjMem.exit

9:                                                ; preds = %5
  tail call void (ptr, i32, i32, ptr, ptr, ptr, ...) @cvProcessError(ptr noundef nonnull %0, i32 noundef -29, i32 noundef 446, ptr noundef nonnull @__func__.CVodeSetMaxNumProjFails, ptr noundef nonnull @.str, ptr noundef nonnull @.str.5) #8
  br label %cvAccessProjMem.exit.thread

cvAccessProjMem.exit:                             ; preds = %5
  %10 = icmp slt i32 %1, 1
  %11 = getelementptr inbounds nuw i8, ptr %7, i64 32
  br i1 %10, label %12, label %13

12:                                               ; preds = %cvAccessProjMem.exit
  store i32 10, ptr %11, align 8
  br label %cvAccessProjMem.exit.thread

13:                                               ; preds = %cvAccessProjMem.exit
  store i32 %1, ptr %11, align 8
  br label %cvAccessProjMem.exit.thread

cvAccessProjMem.exit.thread:                      ; preds = %9, %4, %12, %13
  %.0 = phi i32 [ 0, %13 ], [ 0, %12 ], [ -29, %9 ], [ -21, %4 ]
  ret i32 %.0
}